target datalayout = "e-m:e-p270:32:32-p271:32:32-p272:64:64-i64:64-i128:128-f80:128-n8:16:32:64-S128"
target triple = "x86_64-unknown-linux-gnu"

%struct.MemoryFailureFlags = type { i8, i8 }

@.str.24 = private unnamed_addr constant [16 x i8] c"action-required\00", align 1
@.str.25 = private unnamed_addr constant [10 x i8] c"recursive\00", align 1

; Function Attrs: nounwind sspstrong uwtable
define dso_local zeroext i1 @visit_type_MemoryFailureFlags_members(ptr noundef %v, ptr noundef %obj, ptr noundef %errp) #0 {
entry:
  %retval = alloca i1, align 1
  %v.addr = alloca ptr, align 8
  %obj.addr = alloca ptr, align 8
  %errp.addr = alloca ptr, align 8
  store ptr %v, ptr %v.addr, align 8
  store ptr %obj, ptr %obj.addr, align 8
  store ptr %errp, ptr %errp.addr, align 8
  %0 = load ptr, ptr %v.addr, align 8
  %1 = load ptr, ptr %obj.addr, align 8
  %action_required = getelementptr inbounds %struct.MemoryFailureFlags, ptr %1, i32 0, i32 0
  %2 = load ptr, ptr %errp.addr, align 8
  %call = call zeroext i1 @visit_type_bool(ptr noundef %0, ptr noundef @.str.24, ptr noundef %action_required, ptr noundef %2)
  br i1 %call, label %if.end, label %if.then

if.then:                                          ; preds = %entry
  store i1 false, ptr %retval, align 1
  br label %return

if.end:                                           ; preds = %entry
  %3 = load ptr, ptr %v.addr, align 8
  %4 = load ptr, ptr %obj.addr, align 8
  %recursive = getelementptr inbounds %struct.MemoryFailureFlags, ptr %4, i32 0, i32 1
  %5 = load ptr, ptr %errp.addr, align 8
  %call1 = call zeroext i1 @visit_type_bool(ptr noundef %3, ptr noundef @.str.25, ptr noundef %recursive, ptr noundef %5)
  br i1 %call1, label %if.end3, label %if.then2

if.then2:                                         ; preds = %if.end
  store i1 false, ptr %retval, align 1
  br label %return

if.end3:                                          ; preds = %if.end
  store i1 true, ptr %retval, align 1
  br label %return

return:                                           ; preds = %if.end3, %if.then2, %if.then
  %6 = load i1, ptr %retval, align 1
  ret i1 %6
}